; Function Attrs: mustprogress uwtable
define noundef zeroext i1 @_ZNK9grpc_core18ChildPolicyHandler37ConfigChangeRequiresNewPolicyInstanceEPNS_19LoadBalancingPolicy6ConfigES3_(ptr nocapture nonnull readnone align 8 %this, ptr noundef %old_config, ptr noundef %new_config) unnamed_addr #3 align 2 personality ptr @__gxx_personality_v0 {
entry:
  %vtable = load ptr, ptr %old_config, align 8
  %vfn = getelementptr inbounds i8, ptr %vtable, i64 16
  %0 = load ptr, ptr %vfn, align 8
  %call = tail call { i64, ptr } %0(ptr noundef nonnull align 8 dereferenceable(16) %old_config)
  %1 = extractvalue { i64, ptr } %call, 0
  %2 = extractvalue { i64, ptr } %call, 1
  %vtable3 = load ptr, ptr %new_config, align 8
  %vfn4 = getelementptr inbounds i8, ptr %vtable3, i64 16
  %3 = load ptr, ptr %vfn4, align 8
  %call5 = tail call { i64, ptr } %3(ptr noundef nonnull align 8 dereferenceable(16) %new_config)
  %4 = extractvalue { i64, ptr } %call5, 0
  %5 = extractvalue { i64, ptr } %call5, 1
  %cmp.i.i = icmp eq i64 %1, %4
  br i1 %cmp.i.i, label %land.rhs.i.i, label %_ZStneIcSt11char_traitsIcEEbSt17basic_string_viewIT_T0_ES5_.exit

land.rhs.i.i:                                     ; preds = %entry
  %cmp.i2.i.i.i = icmp eq i64 %1, 0
  br i1 %cmp.i2.i.i.i, label %if.then.i.i.i, label %_ZNSt11char_traitsIcE7compareEPKcS2_m.exit.i.i.i

_ZNSt11char_traitsIcE7compareEPKcS2_m.exit.i.i.i: ; preds = %land.rhs.i.i
  %bcmp.i.i = tail call i32 @bcmp(ptr %2, ptr %5, i64 %1)
  %cmp.i.i.i = icmp eq i32 %bcmp.i.i, 0
  br i1 %cmp.i.i.i, label %if.then.i.i.i, label %_ZStneIcSt11char_traitsIcEEbSt17basic_string_viewIT_T0_ES5_.exit

if.then.i.i.i:                                    ; preds = %_ZNSt11char_traitsIcE7compareEPKcS2_m.exit.i.i.i, %land.rhs.i.i
  br label %_ZStneIcSt11char_traitsIcEEbSt17basic_string_viewIT_T0_ES5_.exit

_ZStneIcSt11char_traitsIcEEbSt17basic_string_viewIT_T0_ES5_.exit: ; preds = %entry, %_ZNSt11char_traitsIcE7compareEPKcS2_m.exit.i.i.i, %if.then.i.i.i
  %lnot.i = phi i1 [ true, %entry ], [ false, %if.then.i.i.i ], [ true, %_ZNSt11char_traitsIcE7compareEPKcS2_m.exit.i.i.i ]
  ret i1 %lnot.i
}